; Function Attrs: mustprogress uwtable
define noundef zeroext i1 @_ZN3net10QuicFramer21ProcessPathCloseFrameEPNS_14QuicDataReaderEPNS_18QuicPathCloseFrameE(ptr noundef nonnull align 8 dereferenceable(408) %0, ptr noundef nonnull %1, ptr noundef %2) local_unnamed_addr #0 align 2 {
  %4 = tail call noundef zeroext i1 @_ZN3net14QuicDataReader9ReadBytesEPvm(ptr noundef nonnull align 8 dereferenceable(24) %1, ptr noundef %2, i64 noundef 1)
  br i1 %4, label %10, label %5

5:                                                ; preds = %3
  %6 = getelementptr inbounds nuw i8, ptr %0, i64 8
  %7 = getelementptr inbounds nuw i8, ptr %0, i64 16
  %8 = load i64, ptr %7, align 8, !tbaa !11
  %9 = tail call noundef nonnull align 8 dereferenceable(32) ptr @_ZNSt7__cxx1112basic_stringIcSt11char_traitsIcESaIcEE10_M_replaceEmmPKcm(ptr noundef nonnull align 8 dereferenceable(32) %6, i64 noundef 0, i64 noundef %8, ptr noundef nonnull @.str.79, i64 noundef 23)
  br label %10

10:                                               ; preds = %3, %5
  ret i1 %4
}